target datalayout = "e-m:e-p270:32:32-p271:32:32-p272:64:64-i64:64-i128:128-f80:128-n8:16:32:64-S128"
target triple = "x86_64-pc-linux-gnu"

%struct.protocol_name_search = type { ptr, ptr, i32 }

; Function Attrs: null_pointer_is_valid sspstrong uwtable
define internal void @find_protocol_name_func(ptr noundef %0, ptr noundef %1, ptr noundef %2) #0 {
  %4 = alloca ptr, align 8
  %5 = alloca ptr, align 8
  %6 = alloca ptr, align 8
  %7 = alloca i32, align 4
  %8 = alloca ptr, align 8
  %9 = alloca ptr, align 8
  store ptr %0, ptr %4, align 8
  store ptr %1, ptr %5, align 8
  store ptr %2, ptr %6, align 8
  call void @llvm.lifetime.start.p0(i64 4, ptr %7) #6
  call void @llvm.lifetime.start.p0(i64 8, ptr %8) #6
  call void @llvm.lifetime.start.p0(i64 8, ptr %9) #6
  br label %10

10:                                               ; preds = %3
  br label %11

11:                                               ; preds = %10
  br label %12

12:                                               ; preds = %11
  %13 = load ptr, ptr %6, align 8
  store ptr %13, ptr %9, align 8
  %14 = load ptr, ptr %5, align 8
  %15 = call i32 @dissector_handle_get_protocol_index(ptr noundef %14)
  store i32 %15, ptr %7, align 4
  %16 = load i32, ptr %7, align 4
  %17 = icmp ne i32 %16, -1
  br i1 %17, label %18, label %45

18:                                               ; preds = %12
  %19 = load i32, ptr %7, align 4
  %20 = call ptr @proto_get_protocol_filter_name(i32 noundef %19)
  store ptr %20, ptr %8, align 8
  br label %21

21:                                               ; preds = %18
  br label %22

22:                                               ; preds = %21
  br label %23

23:                                               ; preds = %22
  %24 = load ptr, ptr %8, align 8
  %25 = load ptr, ptr %9, align 8
  %26 = getelementptr inbounds nuw %struct.protocol_name_search, ptr %25, i32 0, i32 0
  %27 = load ptr, ptr %26, align 8
  %28 = call i32 @strcmp(ptr noundef %24, ptr noundef %27) #7
  %29 = icmp eq i32 %28, 0
  br i1 %29, label %30, label %44

30:                                               ; preds = %23
  %31 = load ptr, ptr %9, align 8
  %32 = getelementptr inbounds nuw %struct.protocol_name_search, ptr %31, i32 0, i32 2
  %33 = load i32, ptr %32, align 8
  %34 = icmp eq i32 %33, 0
  br i1 %34, label %35, label %39

35:                                               ; preds = %30
  %36 = load ptr, ptr %5, align 8
  %37 = load ptr, ptr %9, align 8
  %38 = getelementptr inbounds nuw %struct.protocol_name_search, ptr %37, i32 0, i32 1
  store ptr %36, ptr %38, align 8
  br label %39

39:                                               ; preds = %35, %30
  %40 = load ptr, ptr %9, align 8
  %41 = getelementptr inbounds nuw %struct.protocol_name_search, ptr %40, i32 0, i32 2
  %42 = load i32, ptr %41, align 8
  %43 = add i32 %42, 1
  store i32 %43, ptr %41, align 8
  br label %44

44:                                               ; preds = %39, %23
  br label %45

45:                                               ; preds = %44, %12
  call void @llvm.lifetime.end.p0(i64 8, ptr %9) #6
  call void @llvm.lifetime.end.p0(i64 8, ptr %8) #6
  call void @llvm.lifetime.end.p0(i64 4, ptr %7) #6
  ret void
}