; Function Attrs: null_pointer_is_valid sspstrong uwtable
define internal void @find_protocol_name_func(ptr readnone captures(none) %0, ptr noundef %1, ptr noundef captures(none) %2) #0 {
  %4 = tail call i32 @dissector_handle_get_protocol_index(ptr noundef %1)
  %.not = icmp eq i32 %4, -1
  br i1 %.not, label %18, label %5

5:                                                ; preds = %3
  %6 = tail call ptr @proto_get_protocol_filter_name(i32 noundef %4)
  %7 = load ptr, ptr %2, align 8
  %8 = tail call i32 @strcmp(ptr noundef %6, ptr noundef %7) #7
  %9 = icmp eq i32 %8, 0
  br i1 %9, label %10, label %18

10:                                               ; preds = %5
  %11 = getelementptr inbounds nuw i8, ptr %2, i64 16
  %12 = load i32, ptr %11, align 8
  %13 = icmp eq i32 %12, 0
  br i1 %13, label %14, label %16

14:                                               ; preds = %10
  %15 = getelementptr inbounds nuw i8, ptr %2, i64 8
  store ptr %1, ptr %15, align 8
  br label %16

16:                                               ; preds = %14, %10
  %17 = add i32 %12, 1
  store i32 %17, ptr %11, align 8
  br label %18

18:                                               ; preds = %5, %16, %3
  ret void
}